target datalayout = "e-m:e-p270:32:32-p271:32:32-p272:64:64-i64:64-i128:128-f80:128-n8:16:32:64-S128"
target triple = "x86_64-pc-linux-gnu"

%struct.CPpmd7z_RangeDec = type { %struct.IPpmd7_RangeDec, i32, i32, i32, i32, ptr }
%struct.IPpmd7_RangeDec = type { ptr, ptr, ptr }

; Function Attrs: nounwind uwtable
define internal i32 @Range_DecodeBit_RAR(ptr noundef %0, i32 noundef %1) #0 {
  %3 = alloca ptr, align 8
  %4 = alloca i32, align 4
  %5 = alloca ptr, align 8
  %6 = alloca i32, align 4
  %7 = alloca i32, align 4
  store ptr %0, ptr %3, align 8, !tbaa !4
  store i32 %1, ptr %4, align 4, !tbaa !15
  call void @llvm.lifetime.start.p0(i64 8, ptr %5) #6
  %8 = load ptr, ptr %3, align 8, !tbaa !4
  store ptr %8, ptr %5, align 8, !tbaa !4
  call void @llvm.lifetime.start.p0(i64 4, ptr %6) #6
  call void @llvm.lifetime.start.p0(i64 4, ptr %7) #6
  %9 = load ptr, ptr %5, align 8, !tbaa !4
  %10 = getelementptr inbounds nuw %struct.CPpmd7z_RangeDec, ptr %9, i32 0, i32 0
  %11 = getelementptr inbounds nuw %struct.IPpmd7_RangeDec, ptr %10, i32 0, i32 0
  %12 = load ptr, ptr %11, align 8, !tbaa !28
  %13 = load ptr, ptr %5, align 8, !tbaa !4
  %14 = call i32 %12(ptr noundef %13, i32 noundef 16384)
  store i32 %14, ptr %7, align 4, !tbaa !15
  %15 = load i32, ptr %7, align 4, !tbaa !15
  %16 = load i32, ptr %4, align 4, !tbaa !15
  %17 = icmp ult i32 %15, %16
  br i1 %17, label %18, label %25

18:                                               ; preds = %2
  store i32 0, ptr %6, align 4, !tbaa !15
  %19 = load ptr, ptr %5, align 8, !tbaa !4
  %20 = getelementptr inbounds nuw %struct.CPpmd7z_RangeDec, ptr %19, i32 0, i32 0
  %21 = getelementptr inbounds nuw %struct.IPpmd7_RangeDec, ptr %20, i32 0, i32 1
  %22 = load ptr, ptr %21, align 8, !tbaa !31
  %23 = load ptr, ptr %5, align 8, !tbaa !4
  %24 = load i32, ptr %4, align 4, !tbaa !15
  call void %22(ptr noundef %23, i32 noundef 0, i32 noundef %24)
  br label %34

25:                                               ; preds = %2
  store i32 1, ptr %6, align 4, !tbaa !15
  %26 = load ptr, ptr %5, align 8, !tbaa !4
  %27 = getelementptr inbounds nuw %struct.CPpmd7z_RangeDec, ptr %26, i32 0, i32 0
  %28 = getelementptr inbounds nuw %struct.IPpmd7_RangeDec, ptr %27, i32 0, i32 1
  %29 = load ptr, ptr %28, align 8, !tbaa !31
  %30 = load ptr, ptr %5, align 8, !tbaa !4
  %31 = load i32, ptr %4, align 4, !tbaa !15
  %32 = load i32, ptr %4, align 4, !tbaa !15
  %33 = sub i32 16384, %32
  call void %29(ptr noundef %30, i32 noundef %31, i32 noundef %33)
  br label %34

34:                                               ; preds = %25, %18
  %35 = load i32, ptr %6, align 4, !tbaa !15
  call void @llvm.lifetime.end.p0(i64 4, ptr %7) #6
  call void @llvm.lifetime.end.p0(i64 4, ptr %6) #6
  call void @llvm.lifetime.end.p0(i64 8, ptr %5) #6
  ret i32 %35
}