; Function Attrs: nounwind uwtable
define internal range(i32 0, 2) i32 @Range_DecodeBit_RAR(ptr noundef %0, i32 noundef %1) #4 {
  %3 = load ptr, ptr %0, align 8, !tbaa !26
  %4 = tail call i32 %3(ptr noundef nonnull %0, i32 noundef 16384) #13
  %5 = icmp ult i32 %4, %1
  %6 = getelementptr inbounds nuw i8, ptr %0, i64 8
  %7 = load ptr, ptr %6, align 8, !tbaa !29
  br i1 %5, label %8, label %9

8:                                                ; preds = %2
  tail call void %7(ptr noundef nonnull %0, i32 noundef 0, i32 noundef %1) #13
  br label %11

9:                                                ; preds = %2
  %10 = sub i32 16384, %1
  tail call void %7(ptr noundef nonnull %0, i32 noundef %1, i32 noundef %10) #13
  br label %11

11:                                               ; preds = %9, %8
  %.0 = phi i32 [ 0, %8 ], [ 1, %9 ]
  ret i32 %.0
}